; Function Attrs: nounwind uwtable
define dso_local void @archive_entry_set_fflags(ptr noundef %0, i64 noundef %1, i64 noundef %2) local_unnamed_addr #0 {
  %4 = getelementptr inbounds nuw i8, ptr %0, i64 200
  tail call void @archive_mstring_clean(ptr noundef nonnull %4) #21
  %5 = getelementptr inbounds nuw i8, ptr %0, i64 304
  store i64 %1, ptr %5, align 8, !tbaa !29
  %6 = getelementptr inbounds nuw i8, ptr %0, i64 312
  store i64 %2, ptr %6, align 8, !tbaa !30
  ret void
}